	.file	"bEmbedded.cc"
	.section	.text._ZStanSt13_Ios_FmtflagsS_,"axG",@progbits,_ZStanSt13_Ios_FmtflagsS_,comdat
	.weak	_ZStanSt13_Ios_FmtflagsS_
	.type	_ZStanSt13_Ios_FmtflagsS_, @function
_ZStanSt13_Ios_FmtflagsS_:
.LFB582:
	.cfi_startproc
	pushl	%ebp
	.cfi_def_cfa_offset 8
	.cfi_offset 5, -8
	movl	%esp, %ebp
	.cfi_def_cfa_register 5
	movl	8(%ebp), %edx
	movl	12(%ebp), %eax
	andl	%edx, %eax
	popl	%ebp
	.cfi_def_cfa 4, 4
	.cfi_restore 5
	ret
	.cfi_endproc
.LFE582:
	.size	_ZStanSt13_Ios_FmtflagsS_, .-_ZStanSt13_Ios_FmtflagsS_
	.section	.text._ZStorSt13_Ios_FmtflagsS_,"axG",@progbits,_ZStorSt13_Ios_FmtflagsS_,comdat
	.weak	_ZStorSt13_Ios_FmtflagsS_
	.type	_ZStorSt13_Ios_FmtflagsS_, @function
_ZStorSt13_Ios_FmtflagsS_:
.LFB583:
	.cfi_startproc
	pushl	%ebp
	.cfi_def_cfa_offset 8
	.cfi_offset 5, -8
	movl	%esp, %ebp
	.cfi_def_cfa_register 5
	movl	8(%ebp), %edx
	movl	12(%ebp), %eax
	orl	%edx, %eax
	popl	%ebp
	.cfi_def_cfa 4, 4
	.cfi_restore 5
	ret
	.cfi_endproc
.LFE583:
	.size	_ZStorSt13_Ios_FmtflagsS_, .-_ZStorSt13_Ios_FmtflagsS_
	.section	.text._ZStcoSt13_Ios_Fmtflags,"axG",@progbits,_ZStcoSt13_Ios_Fmtflags,comdat
	.weak	_ZStcoSt13_Ios_Fmtflags
	.type	_ZStcoSt13_Ios_Fmtflags, @function
_ZStcoSt13_Ios_Fmtflags:
.LFB585:
	.cfi_startproc
	pushl	%ebp
	.cfi_def_cfa_offset 8
	.cfi_offset 5, -8
	movl	%esp, %ebp
	.cfi_def_cfa_register 5
	movl	8(%ebp), %eax
	notl	%eax
	popl	%ebp
	.cfi_def_cfa 4, 4
	.cfi_restore 5
	ret
	.cfi_endproc
.LFE585:
	.size	_ZStcoSt13_Ios_Fmtflags, .-_ZStcoSt13_Ios_Fmtflags
	.section	.text._ZStoRRSt13_Ios_FmtflagsS_,"axG",@progbits,_ZStoRRSt13_Ios_FmtflagsS_,comdat
	.weak	_ZStoRRSt13_Ios_FmtflagsS_
	.type	_ZStoRRSt13_Ios_FmtflagsS_, @function
_ZStoRRSt13_Ios_FmtflagsS_:
.LFB586:
	.cfi_startproc
	pushl	%ebp
	.cfi_def_cfa_offset 8
	.cfi_offset 5, -8
	movl	%esp, %ebp
	.cfi_def_cfa_register 5
	subl	$24, %esp
	movl	8(%ebp), %eax
	movl	(%eax), %eax
	movl	12(%ebp), %edx
	movl	%edx, 4(%esp)
	movl	%eax, (%esp)
	call	_ZStorSt13_Ios_FmtflagsS_
	movl	8(%ebp), %edx
	movl	%eax, (%edx)
	movl	8(%ebp), %eax
	leave
	.cfi_restore 5
	.cfi_def_cfa 4, 4
	ret
	.cfi_endproc
.LFE586:
	.size	_ZStoRRSt13_Ios_FmtflagsS_, .-_ZStoRRSt13_Ios_FmtflagsS_
	.section	.text._ZStaNRSt13_Ios_FmtflagsS_,"axG",@progbits,_ZStaNRSt13_Ios_FmtflagsS_,comdat
	.weak	_ZStaNRSt13_Ios_FmtflagsS_
	.type	_ZStaNRSt13_Ios_FmtflagsS_, @function
_ZStaNRSt13_Ios_FmtflagsS_:
.LFB587:
	.cfi_startproc
	pushl	%ebp
	.cfi_def_cfa_offset 8
	.cfi_offset 5, -8
	movl	%esp, %ebp
	.cfi_def_cfa_register 5
	subl	$24, %esp
	movl	8(%ebp), %eax
	movl	(%eax), %eax
	movl	12(%ebp), %edx
	movl	%edx, 4(%esp)
	movl	%eax, (%esp)
	call	_ZStanSt13_Ios_FmtflagsS_
	movl	8(%ebp), %edx
	movl	%eax, (%edx)
	movl	8(%ebp), %eax
	leave
	.cfi_restore 5
	.cfi_def_cfa 4, 4
	ret
	.cfi_endproc
.LFE587:
	.size	_ZStaNRSt13_Ios_FmtflagsS_, .-_ZStaNRSt13_Ios_FmtflagsS_
	.section	.text._ZNSt8ios_base4setfESt13_Ios_FmtflagsS0_,"axG",@progbits,_ZNSt8ios_base4setfESt13_Ios_FmtflagsS0_,comdat
	.align 2
	.weak	_ZNSt8ios_base4setfESt13_Ios_FmtflagsS0_
	.type	_ZNSt8ios_base4setfESt13_Ios_FmtflagsS0_, @function
_ZNSt8ios_base4setfESt13_Ios_FmtflagsS0_:
.LFB614:
	.cfi_startproc
	pushl	%ebp
	.cfi_def_cfa_offset 8
	.cfi_offset 5, -8
	movl	%esp, %ebp
	.cfi_def_cfa_register 5
	subl	$40, %esp
	movl	8(%ebp), %eax
	movl	12(%eax), %eax
	movl	%eax, -12(%ebp)
	movl	16(%ebp), %eax
	movl	%eax, (%esp)
	call	_ZStcoSt13_Ios_Fmtflags
	movl	8(%ebp), %edx
	addl	$12, %edx
	movl	%eax, 4(%esp)
	movl	%edx, (%esp)
	call	_ZStaNRSt13_Ios_FmtflagsS_
	movl	16(%ebp), %eax
	movl	%eax, 4(%esp)
	movl	12(%ebp), %eax
	movl	%eax, (%esp)
	call	_ZStanSt13_Ios_FmtflagsS_
	movl	8(%ebp), %edx
	addl	$12, %edx
	movl	%eax, 4(%esp)
	movl	%edx, (%esp)
	call	_ZStoRRSt13_Ios_FmtflagsS_
	movl	-12(%ebp), %eax
	leave
	.cfi_restore 5
	.cfi_def_cfa 4, 4
	ret
	.cfi_endproc
.LFE614:
	.size	_ZNSt8ios_base4setfESt13_Ios_FmtflagsS0_, .-_ZNSt8ios_base4setfESt13_Ios_FmtflagsS0_
	.section	.text._ZSt3hexRSt8ios_base,"axG",@progbits,_ZSt3hexRSt8ios_base,comdat
	.weak	_ZSt3hexRSt8ios_base
	.type	_ZSt3hexRSt8ios_base, @function
_ZSt3hexRSt8ios_base:
.LFB642:
	.cfi_startproc
	pushl	%ebp
	.cfi_def_cfa_offset 8
	.cfi_offset 5, -8
	movl	%esp, %ebp
	.cfi_def_cfa_register 5
	subl	$24, %esp
	movl	$74, 8(%esp)
	movl	$8, 4(%esp)
	movl	8(%ebp), %eax
	movl	%eax, (%esp)
	call	_ZNSt8ios_base4setfESt13_Ios_FmtflagsS0_
	movl	8(%ebp), %eax
	leave
	.cfi_restore 5
	.cfi_def_cfa 4, 4
	ret
	.cfi_endproc
.LFE642:
	.size	_ZSt3hexRSt8ios_base, .-_ZSt3hexRSt8ios_base
	.local	_ZStL8__ioinit
	.comm	_ZStL8__ioinit,1,1
	.text
	.globl	main
	.type	main, @function
main:
.LFB966:
	.cfi_startproc
	pushl	%ebp
	.cfi_def_cfa_offset 8
	.cfi_offset 5, -8
	movl	%esp, %ebp
	.cfi_def_cfa_register 5
	pushl	%esi
	pushl	%ebx
	andl	$-16, %esp
	subl	$48, %esp
	movl	$10, 44(%esp)
	movl	$10066329, 16(%esp)
	movl	$240, 20(%esp)
	movl	$1900, 24(%esp)
	movl	$0, 28(%esp)
	movl	24(%esp), %eax
	movl	28(%esp), %edx
	movl	16(%esp), %ecx
	movl	20(%esp), %ebx
	.cfi_offset 3, -16
	.cfi_offset 6, -12
	addl	%ecx, %eax
	adcl	%ebx, %edx
	movl	%eax, 32(%esp)
	movl	%edx, 36(%esp)
	movl	32(%esp), %eax
	movl	36(%esp), %edx
	movl	%eax, 4(%esp)
	movl	%edx, 8(%esp)
	movl	$_ZSt4cout, (%esp)
	call	_ZNSolsEy
	movl	$_ZSt4endlIcSt11char_traitsIcEERSt13basic_ostreamIT_T0_ES6_, 4(%esp)
	movl	%eax, (%esp)
	call	_ZNSolsEPFRSoS_E
	movl	44(%esp), %edx
#APP
# 19 "bEmbedded.cc" 1
	movl %edx, %eax; 	  	movl %esp, %ebx; 	  	movl %edx, %ebp
# 0 "" 2
#NO_APP
	movl	%ebx, 16(%esp)
	movl	%esi, 20(%esp)
	movl	$_ZSt3hexRSt8ios_base, 4(%esp)
	movl	$_ZSt4cout, (%esp)
	call	_ZNSolsEPFRSt8ios_baseS0_E
	movl	%eax, %ecx
	movl	16(%esp), %eax
	movl	20(%esp), %edx
	movl	%eax, 4(%esp)
	movl	%edx, 8(%esp)
	movl	%ecx, (%esp)
	call	_ZNSolsEy
	movl	$_ZSt4endlIcSt11char_traitsIcEERSt13basic_ostreamIT_T0_ES6_, 4(%esp)
	movl	%eax, (%esp)
	call	_ZNSolsEPFRSoS_E
	movl	$1, %eax
	leal	-8(%ebp), %esp
	popl	%ebx
	.cfi_restore 3
	popl	%esi
	.cfi_restore 6
	popl	%ebp
	.cfi_def_cfa 4, 4
	.cfi_restore 5
	ret
	.cfi_endproc
.LFE966:
	.size	main, .-main
	.type	_Z41__static_initialization_and_destruction_0ii, @function
_Z41__static_initialization_and_destruction_0ii:
.LFB974:
	.cfi_startproc
	pushl	%ebp
	.cfi_def_cfa_offset 8
	.cfi_offset 5, -8
	movl	%esp, %ebp
	.cfi_def_cfa_register 5
	subl	$24, %esp
	cmpl	$1, 8(%ebp)
	jne	.L9
	cmpl	$65535, 12(%ebp)
	jne	.L9
	movl	$_ZStL8__ioinit, (%esp)
	call	_ZNSt8ios_base4InitC1Ev
	movl	$_ZNSt8ios_base4InitD1Ev, %eax
	movl	$__dso_handle, 8(%esp)
	movl	$_ZStL8__ioinit, 4(%esp)
	movl	%eax, (%esp)
	call	__cxa_atexit
.L9:
	leave
	.cfi_restore 5
	.cfi_def_cfa 4, 4
	ret
	.cfi_endproc
.LFE974:
	.size	_Z41__static_initialization_and_destruction_0ii, .-_Z41__static_initialization_and_destruction_0ii
	.type	_GLOBAL__sub_I_main, @function
_GLOBAL__sub_I_main:
.LFB975:
	.cfi_startproc
	pushl	%ebp
	.cfi_def_cfa_offset 8
	.cfi_offset 5, -8
	movl	%esp, %ebp
	.cfi_def_cfa_register 5
	subl	$24, %esp
	movl	$65535, 4(%esp)
	movl	$1, (%esp)
	call	_Z41__static_initialization_and_destruction_0ii
	leave
	.cfi_restore 5
	.cfi_def_cfa 4, 4
	ret
	.cfi_endproc
.LFE975:
	.size	_GLOBAL__sub_I_main, .-_GLOBAL__sub_I_main
	.section	.ctors,"aw",@progbits
	.align 4
	.long	_GLOBAL__sub_I_main
	.weakref	_ZL20__gthrw_pthread_oncePiPFvvE,pthread_once
	.weakref	_ZL27__gthrw_pthread_getspecificj,pthread_getspecific
	.weakref	_ZL27__gthrw_pthread_setspecificjPKv,pthread_setspecific
	.weakref	_ZL22__gthrw_pthread_createPmPK14pthread_attr_tPFPvS3_ES3_,pthread_create
	.weakref	_ZL20__gthrw_pthread_joinmPPv,pthread_join
	.weakref	_ZL21__gthrw_pthread_equalmm,pthread_equal
	.weakref	_ZL20__gthrw_pthread_selfv,pthread_self
	.weakref	_ZL22__gthrw_pthread_detachm,pthread_detach
	.weakref	_ZL22__gthrw_pthread_cancelm,pthread_cancel
	.weakref	_ZL19__gthrw_sched_yieldv,sched_yield
	.weakref	_ZL26__gthrw_pthread_mutex_lockP15pthread_mutex_t,pthread_mutex_lock
	.weakref	_ZL29__gthrw_pthread_mutex_trylockP15pthread_mutex_t,pthread_mutex_trylock
	.weakref	_ZL31__gthrw_pthread_mutex_timedlockP15pthread_mutex_tPK8timespec,pthread_mutex_timedlock
	.weakref	_ZL28__gthrw_pthread_mutex_unlockP15pthread_mutex_t,pthread_mutex_unlock
	.weakref	_ZL26__gthrw_pthread_mutex_initP15pthread_mutex_tPK19pthread_mutexattr_t,pthread_mutex_init
	.weakref	_ZL29__gthrw_pthread_mutex_destroyP15pthread_mutex_t,pthread_mutex_destroy
	.weakref	_ZL30__gthrw_pthread_cond_broadcastP14pthread_cond_t,pthread_cond_broadcast
	.weakref	_ZL27__gthrw_pthread_cond_signalP14pthread_cond_t,pthread_cond_signal
	.weakref	_ZL25__gthrw_pthread_cond_waitP14pthread_cond_tP15pthread_mutex_t,pthread_cond_wait
	.weakref	_ZL30__gthrw_pthread_cond_timedwaitP14pthread_cond_tP15pthread_mutex_tPK8timespec,pthread_cond_timedwait
	.weakref	_ZL28__gthrw_pthread_cond_destroyP14pthread_cond_t,pthread_cond_destroy
	.weakref	_ZL26__gthrw_pthread_key_createPjPFvPvE,pthread_key_create
	.weakref	_ZL26__gthrw_pthread_key_deletej,pthread_key_delete
	.weakref	_ZL30__gthrw_pthread_mutexattr_initP19pthread_mutexattr_t,pthread_mutexattr_init
	.weakref	_ZL33__gthrw_pthread_mutexattr_settypeP19pthread_mutexattr_ti,pthread_mutexattr_settype
	.weakref	_ZL33__gthrw_pthread_mutexattr_destroyP19pthread_mutexattr_t,pthread_mutexattr_destroy
	.ident	"GCC: (Ubuntu/Linaro 4.6.1-9ubuntu3) 4.6.1"
	.section	.note.GNU-stack,"",@progbits
